target datalayout = "e-m:e-p270:32:32-p271:32:32-p272:64:64-i64:64-i128:128-f80:128-n8:16:32:64-S128"
target triple = "x86_64-pc-linux-gnu"

; Function Attrs: nounwind sspstrong uwtable
define hidden void @FLAC__window_bartlett(ptr noundef %0, i32 noundef %1) #0 {
  %3 = alloca ptr, align 8
  %4 = alloca i32, align 4
  %5 = alloca i32, align 4
  %6 = alloca i32, align 4
  store ptr %0, ptr %3, align 8, !tbaa !3
  store i32 %1, ptr %4, align 4, !tbaa !8
  call void @llvm.lifetime.start.p0(i64 4, ptr %5) #4
  %7 = load i32, ptr %4, align 4, !tbaa !8
  %8 = sub nsw i32 %7, 1
  store i32 %8, ptr %5, align 4, !tbaa !8
  call void @llvm.lifetime.start.p0(i64 4, ptr %6) #4
  %9 = load i32, ptr %4, align 4, !tbaa !8
  %10 = and i32 %9, 1
  %11 = icmp ne i32 %10, 0
  br i1 %11, label %12, label %53

12:                                               ; preds = %2
  store i32 0, ptr %6, align 4, !tbaa !8
  br label %13

13:                                               ; preds = %29, %12
  %14 = load i32, ptr %6, align 4, !tbaa !8
  %15 = load i32, ptr %5, align 4, !tbaa !8
  %16 = sdiv i32 %15, 2
  %17 = icmp sle i32 %14, %16
  br i1 %17, label %18, label %32

18:                                               ; preds = %13
  %19 = load i32, ptr %6, align 4, !tbaa !8
  %20 = sitofp i32 %19 to float
  %21 = fmul reassoc nsz arcp float 2.000000e+00, %20
  %22 = load i32, ptr %5, align 4, !tbaa !8
  %23 = sitofp i32 %22 to float
  %24 = fdiv reassoc nsz arcp float %21, %23
  %25 = load ptr, ptr %3, align 8, !tbaa !3
  %26 = load i32, ptr %6, align 4, !tbaa !8
  %27 = sext i32 %26 to i64
  %28 = getelementptr inbounds float, ptr %25, i64 %27
  store float %24, ptr %28, align 4, !tbaa !10
  br label %29

29:                                               ; preds = %18
  %30 = load i32, ptr %6, align 4, !tbaa !8
  %31 = add nsw i32 %30, 1
  store i32 %31, ptr %6, align 4, !tbaa !8
  br label %13, !llvm.loop !12

32:                                               ; preds = %13
  br label %33

33:                                               ; preds = %49, %32
  %34 = load i32, ptr %6, align 4, !tbaa !8
  %35 = load i32, ptr %5, align 4, !tbaa !8
  %36 = icmp sle i32 %34, %35
  br i1 %36, label %37, label %52

37:                                               ; preds = %33
  %38 = load i32, ptr %6, align 4, !tbaa !8
  %39 = sitofp i32 %38 to float
  %40 = fmul reassoc nsz arcp float 2.000000e+00, %39
  %41 = load i32, ptr %5, align 4, !tbaa !8
  %42 = sitofp i32 %41 to float
  %43 = fdiv reassoc nsz arcp float %40, %42
  %44 = fsub reassoc nsz arcp float 2.000000e+00, %43
  %45 = load ptr, ptr %3, align 8, !tbaa !3
  %46 = load i32, ptr %6, align 4, !tbaa !8
  %47 = sext i32 %46 to i64
  %48 = getelementptr inbounds float, ptr %45, i64 %47
  store float %44, ptr %48, align 4, !tbaa !10
  br label %49

49:                                               ; preds = %37
  %50 = load i32, ptr %6, align 4, !tbaa !8
  %51 = add nsw i32 %50, 1
  store i32 %51, ptr %6, align 4, !tbaa !8
  br label %33, !llvm.loop !14

52:                                               ; preds = %33
  br label %95

53:                                               ; preds = %2
  store i32 0, ptr %6, align 4, !tbaa !8
  br label %54

54:                                               ; preds = %71, %53
  %55 = load i32, ptr %6, align 4, !tbaa !8
  %56 = load i32, ptr %4, align 4, !tbaa !8
  %57 = sdiv i32 %56, 2
  %58 = sub nsw i32 %57, 1
  %59 = icmp sle i32 %55, %58
  br i1 %59, label %60, label %74

60:                                               ; preds = %54
  %61 = load i32, ptr %6, align 4, !tbaa !8
  %62 = sitofp i32 %61 to float
  %63 = fmul reassoc nsz arcp float 2.000000e+00, %62
  %64 = load i32, ptr %5, align 4, !tbaa !8
  %65 = sitofp i32 %64 to float
  %66 = fdiv reassoc nsz arcp float %63, %65
  %67 = load ptr, ptr %3, align 8, !tbaa !3
  %68 = load i32, ptr %6, align 4, !tbaa !8
  %69 = sext i32 %68 to i64
  %70 = getelementptr inbounds float, ptr %67, i64 %69
  store float %66, ptr %70, align 4, !tbaa !10
  br label %71

71:                                               ; preds = %60
  %72 = load i32, ptr %6, align 4, !tbaa !8
  %73 = add nsw i32 %72, 1
  store i32 %73, ptr %6, align 4, !tbaa !8
  br label %54, !llvm.loop !15

74:                                               ; preds = %54
  br label %75

75:                                               ; preds = %91, %74
  %76 = load i32, ptr %6, align 4, !tbaa !8
  %77 = load i32, ptr %5, align 4, !tbaa !8
  %78 = icmp sle i32 %76, %77
  br i1 %78, label %79, label %94

79:                                               ; preds = %75
  %80 = load i32, ptr %6, align 4, !tbaa !8
  %81 = sitofp i32 %80 to float
  %82 = fmul reassoc nsz arcp float 2.000000e+00, %81
  %83 = load i32, ptr %5, align 4, !tbaa !8
  %84 = sitofp i32 %83 to float
  %85 = fdiv reassoc nsz arcp float %82, %84
  %86 = fsub reassoc nsz arcp float 2.000000e+00, %85
  %87 = load ptr, ptr %3, align 8, !tbaa !3
  %88 = load i32, ptr %6, align 4, !tbaa !8
  %89 = sext i32 %88 to i64
  %90 = getelementptr inbounds float, ptr %87, i64 %89
  store float %86, ptr %90, align 4, !tbaa !10
  br label %91

91:                                               ; preds = %79
  %92 = load i32, ptr %6, align 4, !tbaa !8
  %93 = add nsw i32 %92, 1
  store i32 %93, ptr %6, align 4, !tbaa !8
  br label %75, !llvm.loop !16

94:                                               ; preds = %75
  br label %95

95:                                               ; preds = %94, %52
  call void @llvm.lifetime.end.p0(i64 4, ptr %6) #4
  call void @llvm.lifetime.end.p0(i64 4, ptr %5) #4
  ret void
}