; Function Attrs: nofree norecurse nosync nounwind sspstrong memory(argmem: write) uwtable
define hidden void @FLAC__window_bartlett(ptr noundef writeonly captures(none) %0, i32 noundef %1) local_unnamed_addr #0 {
  %3 = add nsw i32 %1, -1
  %4 = and i32 %1, 1
  %.not = icmp eq i32 %4, 0
  br i1 %.not, label %.preheader35, label %.preheader38

.preheader38:                                     ; preds = %2
  %5 = ashr exact i32 %3, 1
  %.not3339 = icmp slt i32 %5, 0
  br i1 %.not3339, label %.preheader36, label %.lr.ph

.lr.ph:                                           ; preds = %.preheader38
  %6 = uitofp nneg i32 %3 to float
  %7 = add nuw nsw i32 %5, 1
  %wide.trip.count = zext nneg i32 %7 to i64
  %8 = fdiv reassoc nsz arcp float 1.000000e+00, %6
  br label %15

.preheader35:                                     ; preds = %2
  %9 = ashr exact i32 %1, 1
  %.not31.not44 = icmp sgt i32 %9, 0
  br i1 %.not31.not44, label %.lr.ph46, label %.preheader

.lr.ph46:                                         ; preds = %.preheader35
  %10 = sitofp i32 %3 to float
  %wide.trip.count62 = zext nneg i32 %9 to i64
  %11 = fdiv reassoc nsz arcp float 1.000000e+00, %10
  br label %31

.preheader36:                                     ; preds = %15, %.preheader38
  %.0.lcssa = phi i32 [ 0, %.preheader38 ], [ %7, %15 ]
  %.not34.not41 = icmp slt i32 %.0.lcssa, %1
  br i1 %.not34.not41, label %.lr.ph43, label %.loopexit

.lr.ph43:                                         ; preds = %.preheader36
  %12 = sitofp i32 %3 to float
  %13 = zext nneg i32 %.0.lcssa to i64
  %wide.trip.count57 = zext i32 %1 to i64
  %14 = fdiv reassoc nsz arcp float 1.000000e+00, %12
  br label %21

15:                                               ; preds = %.lr.ph, %15
  %indvars.iv = phi i64 [ 0, %.lr.ph ], [ %indvars.iv.next, %15 ]
  %16 = trunc nuw nsw i64 %indvars.iv to i32
  %17 = uitofp nneg i32 %16 to float
  %18 = fmul reassoc nsz arcp float %17, 2.000000e+00
  %19 = fmul reassoc nsz arcp float %18, %8
  %20 = getelementptr inbounds nuw float, ptr %0, i64 %indvars.iv
  store float %19, ptr %20, align 4, !tbaa !3
  %indvars.iv.next = add nuw nsw i64 %indvars.iv, 1
  %exitcond.not = icmp eq i64 %indvars.iv.next, %wide.trip.count
  br i1 %exitcond.not, label %.preheader36, label %15, !llvm.loop !7

21:                                               ; preds = %.lr.ph43, %21
  %indvars.iv54 = phi i64 [ %13, %.lr.ph43 ], [ %indvars.iv.next55, %21 ]
  %22 = trunc nuw nsw i64 %indvars.iv54 to i32
  %23 = uitofp nneg i32 %22 to float
  %24 = fmul reassoc nsz arcp float %23, 2.000000e+00
  %25 = fmul reassoc nsz arcp float %24, %14
  %26 = fsub reassoc nsz arcp float 2.000000e+00, %25
  %27 = getelementptr inbounds nuw float, ptr %0, i64 %indvars.iv54
  store float %26, ptr %27, align 4, !tbaa !3
  %indvars.iv.next55 = add nuw nsw i64 %indvars.iv54, 1
  %exitcond58.not = icmp eq i64 %indvars.iv.next55, %wide.trip.count57
  br i1 %exitcond58.not, label %.loopexit, label %21, !llvm.loop !9

.preheader:                                       ; preds = %31, %.preheader35
  %.2.lcssa = phi i32 [ 0, %.preheader35 ], [ %9, %31 ]
  %.not32.not48 = icmp slt i32 %.2.lcssa, %1
  br i1 %.not32.not48, label %.lr.ph50, label %.loopexit

.lr.ph50:                                         ; preds = %.preheader
  %28 = sitofp i32 %3 to float
  %29 = zext nneg i32 %.2.lcssa to i64
  %wide.trip.count67 = zext i32 %1 to i64
  %30 = fdiv reassoc nsz arcp float 1.000000e+00, %28
  br label %37

31:                                               ; preds = %.lr.ph46, %31
  %indvars.iv59 = phi i64 [ 0, %.lr.ph46 ], [ %indvars.iv.next60, %31 ]
  %32 = trunc nuw nsw i64 %indvars.iv59 to i32
  %33 = uitofp nneg i32 %32 to float
  %34 = fmul reassoc nsz arcp float %33, 2.000000e+00
  %35 = fmul reassoc nsz arcp float %34, %11
  %36 = getelementptr inbounds nuw float, ptr %0, i64 %indvars.iv59
  store float %35, ptr %36, align 4, !tbaa !3
  %indvars.iv.next60 = add nuw nsw i64 %indvars.iv59, 1
  %exitcond63.not = icmp eq i64 %indvars.iv.next60, %wide.trip.count62
  br i1 %exitcond63.not, label %.preheader, label %31, !llvm.loop !10

37:                                               ; preds = %.lr.ph50, %37
  %indvars.iv64 = phi i64 [ %29, %.lr.ph50 ], [ %indvars.iv.next65, %37 ]
  %38 = trunc nuw nsw i64 %indvars.iv64 to i32
  %39 = uitofp nneg i32 %38 to float
  %40 = fmul reassoc nsz arcp float %39, 2.000000e+00
  %41 = fmul reassoc nsz arcp float %40, %30
  %42 = fsub reassoc nsz arcp float 2.000000e+00, %41
  %43 = getelementptr inbounds nuw float, ptr %0, i64 %indvars.iv64
  store float %42, ptr %43, align 4, !tbaa !3
  %indvars.iv.next65 = add nuw nsw i64 %indvars.iv64, 1
  %exitcond68.not = icmp eq i64 %indvars.iv.next65, %wide.trip.count67
  br i1 %exitcond68.not, label %.loopexit, label %37, !llvm.loop !11

.loopexit:                                        ; preds = %21, %37, %.preheader36, %.preheader
  ret void
}